target datalayout = "e-m:e-p270:32:32-p271:32:32-p272:64:64-i64:64-i128:128-f80:128-n8:16:32:64-S128"
target triple = "x86_64-pc-linux-gnu"

%struct.Vec_Int_t_ = type { i32, i32, ptr }

@.str.12 = private unnamed_addr constant [62 x i8] c"This %d-variable function has %d decomposable variable sets:\0A\00", align 1
@.str.13 = private unnamed_addr constant [11 x i8] c"Set %4d : \00", align 1

; Function Attrs: inlinehint nounwind uwtable
define internal i32 @Vec_IntEntry(ptr noundef %0, i32 noundef %1) #2 {
  %3 = alloca ptr, align 8
  %4 = alloca i32, align 4
  store ptr %0, ptr %3, align 8, !tbaa !36
  store i32 %1, ptr %4, align 4, !tbaa !8
  %5 = load ptr, ptr %3, align 8, !tbaa !36
  %6 = getelementptr inbounds nuw %struct.Vec_Int_t_, ptr %5, i32 0, i32 2
  %7 = load ptr, ptr %6, align 8, !tbaa !41
  %8 = load i32, ptr %4, align 4, !tbaa !8
  %9 = sext i32 %8 to i64
  %10 = getelementptr inbounds i32, ptr %7, i64 %9
  %11 = load i32, ptr %10, align 4, !tbaa !8
  ret i32 %11
}

; Function Attrs: inlinehint nounwind uwtable
define internal i32 @Vec_IntSize(ptr noundef %0) #2 {
  %2 = alloca ptr, align 8
  store ptr %0, ptr %2, align 8, !tbaa !36
  %3 = load ptr, ptr %2, align 8, !tbaa !36
  %4 = getelementptr inbounds nuw %struct.Vec_Int_t_, ptr %3, i32 0, i32 1
  %5 = load i32, ptr %4, align 4, !tbaa !39
  ret i32 %5
}

; Function Attrs: inlinehint nounwind uwtable
define internal void @Vec_IntFree(ptr noundef %0) #2 {
  %2 = alloca ptr, align 8
  store ptr %0, ptr %2, align 8, !tbaa !36
  %3 = load ptr, ptr %2, align 8, !tbaa !36
  %4 = getelementptr inbounds nuw %struct.Vec_Int_t_, ptr %3, i32 0, i32 2
  %5 = load ptr, ptr %4, align 8, !tbaa !41
  %6 = icmp ne ptr %5, null
  br i1 %6, label %7, label %13

7:                                                ; preds = %1
  %8 = load ptr, ptr %2, align 8, !tbaa !36
  %9 = getelementptr inbounds nuw %struct.Vec_Int_t_, ptr %8, i32 0, i32 2
  %10 = load ptr, ptr %9, align 8, !tbaa !41
  call void @free(ptr noundef %10) #11
  %11 = load ptr, ptr %2, align 8, !tbaa !36
  %12 = getelementptr inbounds nuw %struct.Vec_Int_t_, ptr %11, i32 0, i32 2
  store ptr null, ptr %12, align 8, !tbaa !41
  br label %14

13:                                               ; preds = %1
  br label %14

14:                                               ; preds = %13, %7
  %15 = load ptr, ptr %2, align 8, !tbaa !36
  %16 = icmp ne ptr %15, null
  br i1 %16, label %17, label %19

17:                                               ; preds = %14
  %18 = load ptr, ptr %2, align 8, !tbaa !36
  call void @free(ptr noundef %18) #11
  store ptr null, ptr %2, align 8, !tbaa !36
  br label %20

19:                                               ; preds = %14
  br label %20

20:                                               ; preds = %19, %17
  ret void
}

; Function Attrs: nounwind uwtable
define ptr @Dau_DecFindSets(ptr noundef %0, i32 noundef %1) #0 {
  %3 = alloca ptr, align 8
  %4 = alloca i32, align 4
  %5 = alloca ptr, align 8
  %6 = alloca i32, align 4
  %7 = alloca [16 x ptr], align 16
  store ptr %0, ptr %3, align 8, !tbaa !3
  store i32 %1, ptr %4, align 4, !tbaa !8
  call void @llvm.lifetime.start.p0(i64 8, ptr %5) #11
  call void @llvm.lifetime.start.p0(i64 4, ptr %6) #11
  call void @llvm.lifetime.start.p0(i64 128, ptr %7) #11
  call void @llvm.memset.p0.i64(ptr align 16 %7, i8 0, i64 128, i1 false)
  store i32 2, ptr %6, align 4, !tbaa !8
  br label %8

8:                                                ; preds = %18, %2
  %9 = load i32, ptr %6, align 4, !tbaa !8
  %10 = load i32, ptr %4, align 4, !tbaa !8
  %11 = icmp slt i32 %9, %10
  br i1 %11, label %12, label %21

12:                                               ; preds = %8
  %13 = load i32, ptr %6, align 4, !tbaa !8
  %14 = call ptr @Extra_GreyCodeSchedule(i32 noundef %13)
  %15 = load i32, ptr %6, align 4, !tbaa !8
  %16 = sext i32 %15 to i64
  %17 = getelementptr inbounds [16 x ptr], ptr %7, i64 0, i64 %16
  store ptr %14, ptr %17, align 8, !tbaa !10
  br label %18

18:                                               ; preds = %12
  %19 = load i32, ptr %6, align 4, !tbaa !8
  %20 = add nsw i32 %19, 1
  store i32 %20, ptr %6, align 4, !tbaa !8
  br label %8, !llvm.loop !55

21:                                               ; preds = %8
  %22 = load ptr, ptr %3, align 8, !tbaa !3
  %23 = load i32, ptr %4, align 4, !tbaa !8
  %24 = getelementptr inbounds [16 x ptr], ptr %7, i64 0, i64 0
  %25 = call ptr @Dau_DecFindSets_int(ptr noundef %22, i32 noundef %23, ptr noundef %24)
  store ptr %25, ptr %5, align 8, !tbaa !36
  store i32 2, ptr %6, align 4, !tbaa !8
  br label %26

26:                                               ; preds = %46, %21
  %27 = load i32, ptr %6, align 4, !tbaa !8
  %28 = load i32, ptr %4, align 4, !tbaa !8
  %29 = icmp slt i32 %27, %28
  br i1 %29, label %30, label %49

30:                                               ; preds = %26
  %31 = load i32, ptr %6, align 4, !tbaa !8
  %32 = sext i32 %31 to i64
  %33 = getelementptr inbounds [16 x ptr], ptr %7, i64 0, i64 %32
  %34 = load ptr, ptr %33, align 8, !tbaa !10
  %35 = icmp ne ptr %34, null
  br i1 %35, label %36, label %44

36:                                               ; preds = %30
  %37 = load i32, ptr %6, align 4, !tbaa !8
  %38 = sext i32 %37 to i64
  %39 = getelementptr inbounds [16 x ptr], ptr %7, i64 0, i64 %38
  %40 = load ptr, ptr %39, align 8, !tbaa !10
  call void @free(ptr noundef %40) #11
  %41 = load i32, ptr %6, align 4, !tbaa !8
  %42 = sext i32 %41 to i64
  %43 = getelementptr inbounds [16 x ptr], ptr %7, i64 0, i64 %42
  store ptr null, ptr %43, align 8, !tbaa !10
  br label %45

44:                                               ; preds = %30
  br label %45

45:                                               ; preds = %44, %36
  br label %46

46:                                               ; preds = %45
  %47 = load i32, ptr %6, align 4, !tbaa !8
  %48 = add nsw i32 %47, 1
  store i32 %48, ptr %6, align 4, !tbaa !8
  br label %26, !llvm.loop !56

49:                                               ; preds = %26
  %50 = load ptr, ptr %5, align 8, !tbaa !36
  call void @llvm.lifetime.end.p0(i64 128, ptr %7) #11
  call void @llvm.lifetime.end.p0(i64 4, ptr %6) #11
  call void @llvm.lifetime.end.p0(i64 8, ptr %5) #11
  ret ptr %50
}

; Function Attrs: nounwind uwtable
define void @Dau_DecTrySets(ptr noundef %0, i32 noundef %1, i32 noundef %2) #0 {
  %4 = alloca ptr, align 8
  %5 = alloca i32, align 4
  %6 = alloca i32, align 4
  %7 = alloca ptr, align 8
  %8 = alloca i32, align 4
  %9 = alloca i32, align 4
  %10 = alloca i32, align 4
  %11 = alloca i32, align 4
  store ptr %0, ptr %4, align 8, !tbaa !3
  store i32 %1, ptr %5, align 4, !tbaa !8
  store i32 %2, ptr %6, align 4, !tbaa !8
  call void @llvm.lifetime.start.p0(i64 8, ptr %7) #11
  call void @llvm.lifetime.start.p0(i64 4, ptr %8) #11
  call void @llvm.lifetime.start.p0(i64 4, ptr %9) #11
  %12 = load ptr, ptr %4, align 8, !tbaa !3
  %13 = load i32, ptr %5, align 4, !tbaa !8
  %14 = call ptr @Dau_DecFindSets(ptr noundef %12, i32 noundef %13)
  store ptr %14, ptr %7, align 8, !tbaa !36
  %15 = load i32, ptr %6, align 4, !tbaa !8
  %16 = icmp ne i32 %15, 0
  br i1 %16, label %19, label %17

17:                                               ; preds = %3
  %18 = load ptr, ptr %7, align 8, !tbaa !36
  call void @Vec_IntFree(ptr noundef %18)
  store i32 1, ptr %10, align 4
  br label %63

19:                                               ; preds = %3
  %20 = load ptr, ptr %4, align 8, !tbaa !3
  %21 = load i32, ptr %5, align 4, !tbaa !8
  call void @Dau_DsdPrintFromTruth(ptr noundef %20, i32 noundef %21)
  %22 = load i32, ptr %5, align 4, !tbaa !8
  %23 = load ptr, ptr %7, align 8, !tbaa !36
  %24 = call i32 @Vec_IntSize(ptr noundef %23)
  %25 = call i32 (ptr, ...) @printf(ptr noundef @.str.12, i32 noundef %22, i32 noundef %24)
  store i32 0, ptr %8, align 4, !tbaa !8
  br label %26

26:                                               ; preds = %58, %19
  %27 = load i32, ptr %8, align 4, !tbaa !8
  %28 = load ptr, ptr %7, align 8, !tbaa !36
  %29 = call i32 @Vec_IntSize(ptr noundef %28)
  %30 = icmp slt i32 %27, %29
  br i1 %30, label %31, label %35

31:                                               ; preds = %26
  %32 = load ptr, ptr %7, align 8, !tbaa !36
  %33 = load i32, ptr %8, align 4, !tbaa !8
  %34 = call i32 @Vec_IntEntry(ptr noundef %32, i32 noundef %33)
  store i32 %34, ptr %9, align 4, !tbaa !8
  br label %35

35:                                               ; preds = %31, %26
  %36 = phi i1 [ false, %26 ], [ true, %31 ]
  br i1 %36, label %37, label %61

37:                                               ; preds = %35
  call void @llvm.lifetime.start.p0(i64 4, ptr %11) #11
  %38 = load i32, ptr %9, align 4, !tbaa !8
  store i32 %38, ptr %11, align 4, !tbaa !8
  %39 = load i32, ptr %8, align 4, !tbaa !8
  %40 = call i32 (ptr, ...) @printf(ptr noundef @.str.13, i32 noundef %39)
  %41 = load i32, ptr %5, align 4, !tbaa !8
  %42 = icmp sgt i32 %41, 6
  br i1 %42, label %43, label %50

43:                                               ; preds = %37
  %44 = load i32, ptr %11, align 4, !tbaa !8
  %45 = load i32, ptr %5, align 4, !tbaa !8
  call void @Dau_DecPrintSet(i32 noundef %44, i32 noundef %45, i32 noundef 0)
  %46 = load ptr, ptr %4, align 8, !tbaa !3
  %47 = load i32, ptr %5, align 4, !tbaa !8
  %48 = load i32, ptr %11, align 4, !tbaa !8
  %49 = call i32 @Dau_DecPerform(ptr noundef %46, i32 noundef %47, i32 noundef %48)
  br label %57

50:                                               ; preds = %37
  %51 = load i32, ptr %11, align 4, !tbaa !8
  %52 = load i32, ptr %5, align 4, !tbaa !8
  call void @Dau_DecPrintSet(i32 noundef %51, i32 noundef %52, i32 noundef 1)
  %53 = load ptr, ptr %4, align 8, !tbaa !3
  %54 = load i32, ptr %5, align 4, !tbaa !8
  %55 = load i32, ptr %11, align 4, !tbaa !8
  %56 = call i32 @Dau_DecPerform6(ptr noundef %53, i32 noundef %54, i32 noundef %55)
  br label %57

57:                                               ; preds = %50, %43
  call void @llvm.lifetime.end.p0(i64 4, ptr %11) #11
  br label %58

58:                                               ; preds = %57
  %59 = load i32, ptr %8, align 4, !tbaa !8
  %60 = add nsw i32 %59, 1
  store i32 %60, ptr %8, align 4, !tbaa !8
  br label %26, !llvm.loop !81

61:                                               ; preds = %35
  %62 = load ptr, ptr %7, align 8, !tbaa !36
  call void @Vec_IntFree(ptr noundef %62)
  store i32 0, ptr %10, align 4
  br label %63

63:                                               ; preds = %61, %17
  call void @llvm.lifetime.end.p0(i64 4, ptr %9) #11
  call void @llvm.lifetime.end.p0(i64 4, ptr %8) #11
  call void @llvm.lifetime.end.p0(i64 8, ptr %7) #11
  %64 = load i32, ptr %10, align 4
  switch i32 %64, label %66 [
    i32 0, label %65
    i32 1, label %65
  ]

65:                                               ; preds = %63, %63
  ret void

66:                                               ; preds = %63
  unreachable
}