; Function Attrs: nounwind uwtable
define void @Dau_DecTrySets(ptr noundef %0, i32 noundef %1, i32 noundef %2) local_unnamed_addr #10 {
  %4 = alloca [16 x ptr], align 16
  call void @llvm.lifetime.start.p0(i64 128, ptr nonnull %4) #20
  call void @llvm.memset.p0.i64(ptr noundef nonnull align 16 dereferenceable(128) %4, i8 0, i64 128, i1 false)
  %5 = icmp sgt i32 %1, 2
  br i1 %5, label %.lr.ph.preheader.i, label %._crit_edge.thread.i

._crit_edge.thread.i:                             ; preds = %3
  %6 = call ptr @Dau_DecFindSets_int(ptr noundef readonly %0, i32 noundef %1, ptr noundef nonnull %4)
  br label %Dau_DecFindSets.exit

.lr.ph.preheader.i:                               ; preds = %3
  %wide.trip.count.i = zext nneg i32 %1 to i64
  br label %.lr.ph.i

.lr.ph.i:                                         ; preds = %.lr.ph.i, %.lr.ph.preheader.i
  %indvars.iv.i = phi i64 [ 2, %.lr.ph.preheader.i ], [ %indvars.iv.next.i, %.lr.ph.i ]
  %7 = trunc nuw nsw i64 %indvars.iv.i to i32
  %8 = tail call ptr @Extra_GreyCodeSchedule(i32 noundef %7) #20
  %9 = getelementptr inbounds nuw [16 x ptr], ptr %4, i64 0, i64 %indvars.iv.i
  store ptr %8, ptr %9, align 8, !tbaa !46
  %indvars.iv.next.i = add nuw nsw i64 %indvars.iv.i, 1
  %exitcond.not.i = icmp eq i64 %indvars.iv.next.i, %wide.trip.count.i
  br i1 %exitcond.not.i, label %._crit_edge.i, label %.lr.ph.i, !llvm.loop !54

._crit_edge.i:                                    ; preds = %.lr.ph.i
  %10 = call ptr @Dau_DecFindSets_int(ptr noundef readonly %0, i32 noundef %1, ptr noundef nonnull %4)
  br label %.lr.ph18.i

.lr.ph18.i:                                       ; preds = %14, %._crit_edge.i
  %indvars.iv21.i = phi i64 [ 2, %._crit_edge.i ], [ %indvars.iv.next22.i, %14 ]
  %11 = getelementptr inbounds nuw [16 x ptr], ptr %4, i64 0, i64 %indvars.iv21.i
  %12 = load ptr, ptr %11, align 8, !tbaa !46
  %.not.i = icmp eq ptr %12, null
  br i1 %.not.i, label %14, label %13

13:                                               ; preds = %.lr.ph18.i
  tail call void @free(ptr noundef nonnull %12) #20
  store ptr null, ptr %11, align 8, !tbaa !46
  br label %14

14:                                               ; preds = %13, %.lr.ph18.i
  %indvars.iv.next22.i = add nuw nsw i64 %indvars.iv21.i, 1
  %exitcond25.not.i = icmp eq i64 %indvars.iv.next22.i, %wide.trip.count.i
  br i1 %exitcond25.not.i, label %Dau_DecFindSets.exit, label %.lr.ph18.i, !llvm.loop !55

Dau_DecFindSets.exit:                             ; preds = %14, %._crit_edge.thread.i
  %15 = phi ptr [ %6, %._crit_edge.thread.i ], [ %10, %14 ]
  call void @llvm.lifetime.end.p0(i64 128, ptr nonnull %4) #20
  %.not = icmp eq i32 %2, 0
  br i1 %.not, label %16, label %19

16:                                               ; preds = %Dau_DecFindSets.exit
  %17 = getelementptr inbounds nuw i8, ptr %15, i64 8
  %18 = load ptr, ptr %17, align 8, !tbaa !36
  %.not.i29 = icmp eq ptr %18, null
  br i1 %.not.i29, label %Vec_IntFree.exit, label %Vec_IntFree.exit.sink.split

19:                                               ; preds = %Dau_DecFindSets.exit
  tail call void @Dau_DsdPrintFromTruth(ptr noundef %0, i32 noundef %1) #20
  %20 = getelementptr i8, ptr %15, i64 4
  %.val27 = load i32, ptr %20, align 4, !tbaa !33
  %21 = tail call i32 (ptr, ...) @printf(ptr noundef nonnull dereferenceable(1) @.str.12, i32 noundef %1, i32 noundef %.val27)
  %.val32 = load i32, ptr %20, align 4, !tbaa !33
  %22 = icmp sgt i32 %.val32, 0
  br i1 %22, label %.lr.ph, label %.critedge

.lr.ph:                                           ; preds = %19
  %23 = getelementptr i8, ptr %15, i64 8
  %24 = icmp sgt i32 %1, 6
  br i1 %24, label %.lr.ph.split.us, label %.lr.ph.split

.lr.ph.split.us:                                  ; preds = %.lr.ph, %.lr.ph.split.us
  %indvars.iv36 = phi i64 [ %indvars.iv.next37, %.lr.ph.split.us ], [ 0, %.lr.ph ]
  %.val28.us = load ptr, ptr %23, align 8, !tbaa !36
  %25 = getelementptr inbounds nuw i32, ptr %.val28.us, i64 %indvars.iv36
  %26 = load i32, ptr %25, align 4, !tbaa !3
  %27 = trunc nuw nsw i64 %indvars.iv36 to i32
  %28 = tail call i32 (ptr, ...) @printf(ptr noundef nonnull dereferenceable(1) @.str.13, i32 noundef %27)
  tail call void @Dau_DecPrintSet(i32 noundef %26, i32 noundef %1, i32 noundef 0)
  %29 = tail call i32 @Dau_DecPerform(ptr noundef %0, i32 noundef %1, i32 noundef %26)
  %indvars.iv.next37 = add nuw nsw i64 %indvars.iv36, 1
  %.val.us = load i32, ptr %20, align 4, !tbaa !33
  %30 = sext i32 %.val.us to i64
  %31 = icmp slt i64 %indvars.iv.next37, %30
  br i1 %31, label %.lr.ph.split.us, label %.critedge, !llvm.loop !75

.lr.ph.split:                                     ; preds = %.lr.ph, %.lr.ph.split
  %indvars.iv = phi i64 [ %indvars.iv.next, %.lr.ph.split ], [ 0, %.lr.ph ]
  %.val28 = load ptr, ptr %23, align 8, !tbaa !36
  %32 = getelementptr inbounds nuw i32, ptr %.val28, i64 %indvars.iv
  %33 = load i32, ptr %32, align 4, !tbaa !3
  %34 = trunc nuw nsw i64 %indvars.iv to i32
  %35 = tail call i32 (ptr, ...) @printf(ptr noundef nonnull dereferenceable(1) @.str.13, i32 noundef %34)
  tail call void @Dau_DecPrintSet(i32 noundef %33, i32 noundef %1, i32 noundef 1)
  %36 = tail call i32 @Dau_DecPerform6(ptr noundef %0, i32 noundef %1, i32 noundef %33)
  %indvars.iv.next = add nuw nsw i64 %indvars.iv, 1
  %.val = load i32, ptr %20, align 4, !tbaa !33
  %37 = sext i32 %.val to i64
  %38 = icmp slt i64 %indvars.iv.next, %37
  br i1 %38, label %.lr.ph.split, label %.critedge, !llvm.loop !75

.critedge:                                        ; preds = %.lr.ph.split, %.lr.ph.split.us, %19
  %39 = getelementptr inbounds nuw i8, ptr %15, i64 8
  %40 = load ptr, ptr %39, align 8, !tbaa !36
  %.not.i30 = icmp eq ptr %40, null
  br i1 %.not.i30, label %Vec_IntFree.exit, label %Vec_IntFree.exit.sink.split

Vec_IntFree.exit.sink.split:                      ; preds = %.critedge, %16
  %.sink = phi ptr [ %18, %16 ], [ %40, %.critedge ]
  tail call void @free(ptr noundef nonnull %.sink) #20
  br label %Vec_IntFree.exit

Vec_IntFree.exit:                                 ; preds = %Vec_IntFree.exit.sink.split, %.critedge, %16
  tail call void @free(ptr noundef nonnull %15) #20
  ret void
}